target datalayout = "e-m:e-p270:32:32-p271:32:32-p272:64:64-i64:64-i128:128-f80:128-n8:16:32:64-S128"
target triple = "x86_64-pc-linux-gnu"

%struct.FT_Vector_ = type { i64, i64 }
%struct.FT_ListRec_ = type { ptr, ptr }
%struct.FT_LibraryRec_ = type { ptr, i32, i32, i32, i32, [32 x ptr], %struct.FT_ListRec_, ptr, ptr, [4 x ptr], [3 x %struct.FT_Vector_], i32 }

@.str.28 = private unnamed_addr constant [11 x i8] c".resource/\00", align 1

; Function Attrs: nounwind uwtable
define internal i32 @raccess_guess_linux_cap(ptr noundef %0, ptr noundef %1, ptr noundef %2, ptr noundef %3, ptr noundef %4) #0 {
  %6 = alloca i32, align 4
  %7 = alloca ptr, align 8
  %8 = alloca ptr, align 8
  %9 = alloca ptr, align 8
  %10 = alloca ptr, align 8
  %11 = alloca ptr, align 8
  %12 = alloca ptr, align 8
  %13 = alloca ptr, align 8
  %14 = alloca i32, align 4
  store ptr %0, ptr %7, align 8, !tbaa !70
  store ptr %1, ptr %8, align 8, !tbaa !268
  store ptr %2, ptr %9, align 8, !tbaa !183
  store ptr %3, ptr %10, align 8, !tbaa !631
  store ptr %4, ptr %11, align 8, !tbaa !10
  call void @llvm.lifetime.start.p0(i64 8, ptr %12) #10
  call void @llvm.lifetime.start.p0(i64 8, ptr %13) #10
  %15 = load ptr, ptr %8, align 8, !tbaa !268
  store ptr %15, ptr %8, align 8, !tbaa !268
  %16 = load ptr, ptr %7, align 8, !tbaa !70
  %17 = getelementptr inbounds nuw %struct.FT_LibraryRec_, ptr %16, i32 0, i32 0
  %18 = load ptr, ptr %17, align 8, !tbaa !269
  store ptr %18, ptr %13, align 8, !tbaa !185
  %19 = load ptr, ptr %13, align 8, !tbaa !185
  %20 = load ptr, ptr %9, align 8, !tbaa !183
  %21 = call ptr @raccess_make_file_name(ptr noundef %19, ptr noundef %20, ptr noundef @.str.28)
  store ptr %21, ptr %12, align 8, !tbaa !183
  %22 = load ptr, ptr %12, align 8, !tbaa !183
  %23 = icmp ne ptr %22, null
  br i1 %23, label %25, label %24

24:                                               ; preds = %5
  store i32 64, ptr %6, align 4
  store i32 1, ptr %14, align 4
  br label %29

25:                                               ; preds = %5
  %26 = load ptr, ptr %12, align 8, !tbaa !183
  %27 = load ptr, ptr %10, align 8, !tbaa !631
  store ptr %26, ptr %27, align 8, !tbaa !183
  %28 = load ptr, ptr %11, align 8, !tbaa !10
  store i64 0, ptr %28, align 8, !tbaa !47
  store i32 0, ptr %6, align 4
  store i32 1, ptr %14, align 4
  br label %29

29:                                               ; preds = %25, %24
  call void @llvm.lifetime.end.p0(i64 8, ptr %13) #10
  call void @llvm.lifetime.end.p0(i64 8, ptr %12) #10
  %30 = load i32, ptr %6, align 4
  ret i32 %30
}