; Function Attrs: nounwind uwtable
define internal range(i32 0, 65) i32 @raccess_guess_linux_cap(ptr noundef readonly captures(none) %0, ptr readnone captures(none) %1, ptr noundef %2, ptr noundef writeonly captures(none) %3, ptr noundef writeonly captures(none) %4) #0 {
  %6 = load ptr, ptr %0, align 8, !tbaa !241
  %7 = tail call fastcc ptr @raccess_make_file_name(ptr noundef %6, ptr noundef %2, ptr noundef nonnull @.str.28)
  %.not = icmp eq ptr %7, null
  br i1 %.not, label %9, label %8

8:                                                ; preds = %5
  store ptr %7, ptr %3, align 8, !tbaa !190
  store i64 0, ptr %4, align 8, !tbaa !37
  br label %9

9:                                                ; preds = %5, %8
  %.0 = phi i32 [ 0, %8 ], [ 64, %5 ]
  ret i32 %.0
}